(ikeras_frcnn.config
Config
p0
(dp1
S'use_vertical_flips'
p2
I00
sS'verbose'
p3
I01
sS'classifier_regr_std'
p4
(lp5
F8.0
aF8.0
aF4.0
aF4.0
asS'classifier_min_overlap'
p6
F0.1
sS'rot_90'
p7
I00
sS'class_mapping'
p8
(dp9
S'02'
p10
I1
sS'03'
p11
I2
sS'01'
p12
I0
sS'06'
p13
I4
sS'05'
p14
I3
sS'09'
p15
I5
sS'bg'
p16
I7
sS'10'
p17
I6
ssS'use_horizontal_flips'
p18
I00
sS'rpn_max_overlap'
p19
F0.7
sS'network'
p20
S'inception_resnet_v2'
p21
sS'img_channel_mean'
p22
(lp23
F103.939
aF116.779
aF123.68
asS'use_freq_mask'
p24
I01
sS'balanced_classes'
p25
I00
sS'anchor_box_ratios'
p26
(lp27
(lp28
I1
aI1
aa(lp29
I1
aI4
aa(lp30
I4
aI1
aasS'img_scaling_factor'
p31
F1.0
sS'use_time_mask'
p32
I01
sS'rpn_stride'
p33
I16
sS'num_rois'
p34
I32
sS'base_net_weights'
p35
S'inception_resnet_v2_weights_tf_dim_ordering_tf_kernels.h5'
p36
sS'anchor_box_scales'
p37
(lp38
I128
aI256
aI512
asS'rpn_min_overlap'
p39
F0.3
sS'model_path'
p40
S'./model_frcnn.hdf5'
p41
sS'classifier_max_overlap'
p42
F0.5
sS'std_scaling'
p43
F4.0
sS'im_size'
p44
I600
sb.